target datalayout = "e-m:e-p270:32:32-p271:32:32-p272:64:64-i64:64-i128:128-f80:128-n8:16:32:64-S128"
target triple = "x86_64-pc-linux-gnu"

%struct.TT_FaceRec_ = type { %struct.FT_FaceRec_, %struct.TTC_HeaderRec_, i64, i16, ptr, %struct.TT_Header_, %struct.TT_HoriHeader_, %struct.TT_MaxProfile_, i8, %struct.TT_VertHeader_, i16, %struct.TT_NameTableRec_, %struct.TT_OS2_, %struct.TT_Postscript_, ptr, i64, ptr, ptr, ptr, ptr, ptr, ptr, ptr, ptr, ptr, ptr, ptr, ptr, %struct.TT_Gasp_, %struct.TT_PCLT_, i64, ptr, %struct.TT_Post_NamesRec_, %struct.FT_Palette_Data_, i16, ptr, i8, %struct.FT_Color_, i64, ptr, i64, ptr, i64, ptr, ptr, %struct.FT_Generic_, ptr, i64, i64, i8, i8, ptr, i32, ptr, i32, i32, ptr, i64, i64, i64, ptr, ptr, i64, i32, i64, ptr, ptr, i64, i32, i32, ptr, ptr, i64, i32, i32, i32, %struct.TT_BDFRec_, i64, i64, i64, i64, ptr, ptr, ptr }
%struct.FT_FaceRec_ = type { i64, i64, i64, i64, i64, ptr, ptr, i32, ptr, i32, ptr, %struct.FT_Generic_, %struct.FT_BBox_, i16, i16, i16, i16, i16, i16, i16, i16, ptr, ptr, ptr, ptr, ptr, ptr, %struct.FT_ListRec_, %struct.FT_Generic_, ptr, ptr }
%struct.FT_BBox_ = type { i64, i64, i64, i64 }
%struct.FT_ListRec_ = type { ptr, ptr }
%struct.TTC_HeaderRec_ = type { i64, i64, i64, ptr }
%struct.TT_Header_ = type { i64, i64, i64, i64, i16, i16, [2 x i64], [2 x i64], i16, i16, i16, i16, i16, i16, i16, i16, i16 }
%struct.TT_HoriHeader_ = type { i64, i16, i16, i16, i16, i16, i16, i16, i16, i16, i16, [4 x i16], i16, i16, ptr, ptr }
%struct.TT_MaxProfile_ = type { i64, i16, i16, i16, i16, i16, i16, i16, i16, i16, i16, i16, i16, i16, i16 }
%struct.TT_VertHeader_ = type { i64, i16, i16, i16, i16, i16, i16, i16, i16, i16, i16, [4 x i16], i16, i16, ptr, ptr }
%struct.TT_NameTableRec_ = type { i16, i32, i32, ptr, i32, ptr, ptr }
%struct.TT_OS2_ = type { i16, i16, i16, i16, i16, i16, i16, i16, i16, i16, i16, i16, i16, i16, i16, i16, [10 x i8], i64, i64, i64, i64, [4 x i8], i16, i16, i16, i16, i16, i16, i16, i16, i64, i64, i16, i16, i16, i16, i16, i16, i16 }
%struct.TT_Postscript_ = type { i64, i64, i16, i16, i64, i64, i64, i64, i64 }
%struct.TT_Gasp_ = type { i16, i16, ptr }
%struct.TT_PCLT_ = type { i64, i64, i16, i16, i16, i16, i16, i16, [16 x i8], [8 x i8], [6 x i8], i8, i8, i8, i8 }
%struct.TT_Post_NamesRec_ = type { i8, i16, i16, ptr, ptr }
%struct.FT_Palette_Data_ = type { i16, ptr, ptr, i16, ptr }
%struct.FT_Color_ = type { i8, i8, i8, i8 }
%struct.FT_Generic_ = type { ptr, ptr }
%struct.TT_BDFRec_ = type { ptr, ptr, ptr, i64, i32, i8 }
%struct.FT_Vector_ = type { i64, i64 }
%struct.SFNT_Interface_ = type { ptr, ptr, ptr, ptr, ptr, ptr, ptr, ptr, ptr, ptr, ptr, ptr, ptr, ptr, ptr, ptr, ptr, ptr, ptr, ptr, ptr, ptr, ptr, ptr, ptr, ptr, ptr, ptr, ptr, ptr, ptr, ptr, ptr, ptr, ptr, ptr, ptr, ptr, ptr, ptr, ptr, ptr, ptr, ptr, ptr, ptr, ptr, ptr }
%struct.FT_GlyphSlotRec_ = type { ptr, ptr, ptr, i32, %struct.FT_Generic_, %struct.FT_Glyph_Metrics_, i64, i64, %struct.FT_Vector_, i32, %struct.FT_Bitmap_, i32, i32, %struct.FT_Outline_, i32, ptr, ptr, i64, i64, i64, ptr, ptr }
%struct.FT_Glyph_Metrics_ = type { i64, i64, i64, i64, i64, i64, i64, i64 }
%struct.FT_Bitmap_ = type { i32, i32, i32, ptr, i16, i8, i8, ptr }
%struct.FT_Outline_ = type { i16, i16, ptr, ptr, ptr, i32 }

; Function Attrs: nounwind uwtable
define internal i32 @cff_get_advances(ptr noundef %0, i32 noundef %1, i32 noundef %2, i32 noundef %3, ptr noundef %4) #0 {
  %6 = alloca i32, align 4
  %7 = alloca ptr, align 8
  %8 = alloca i32, align 4
  %9 = alloca i32, align 4
  %10 = alloca i32, align 4
  %11 = alloca ptr, align 8
  %12 = alloca i32, align 4
  %13 = alloca i32, align 4
  %14 = alloca ptr, align 8
  %15 = alloca ptr, align 8
  %16 = alloca i16, align 2
  %17 = alloca i16, align 2
  %18 = alloca i16, align 2
  store ptr %0, ptr %7, align 8
  store i32 %1, ptr %8, align 4
  store i32 %2, ptr %9, align 4
  store i32 %3, ptr %10, align 4
  store ptr %4, ptr %11, align 8
  store i32 0, ptr %13, align 4
  %19 = load ptr, ptr %7, align 8
  %20 = getelementptr inbounds %struct.FT_FaceRec_, ptr %19, i32 0, i32 21
  %21 = load ptr, ptr %20, align 8
  store ptr %21, ptr %14, align 8
  %22 = load ptr, ptr %7, align 8
  %23 = getelementptr inbounds %struct.FT_FaceRec_, ptr %22, i32 0, i32 2
  %24 = load i64, ptr %23, align 8
  %25 = and i64 %24, 8
  %26 = icmp ne i64 %25, 0
  br i1 %26, label %27, label %140

27:                                               ; preds = %5
  %28 = load ptr, ptr %7, align 8
  store ptr %28, ptr %15, align 8
  %29 = load i32, ptr %10, align 4
  %30 = sext i32 %29 to i64
  %31 = and i64 %30, 16
  %32 = icmp ne i64 %31, 0
  br i1 %32, label %33, label %85

33:                                               ; preds = %27
  %34 = load ptr, ptr %7, align 8
  %35 = getelementptr inbounds %struct.FT_FaceRec_, ptr %34, i32 0, i32 1
  %36 = load i64, ptr %35, align 8
  %37 = and i64 %36, 2147418112
  %38 = icmp ne i64 %37, 0
  br i1 %38, label %45, label %39

39:                                               ; preds = %33
  %40 = load ptr, ptr %7, align 8
  %41 = getelementptr inbounds %struct.FT_FaceRec_, ptr %40, i32 0, i32 2
  %42 = load i64, ptr %41, align 8
  %43 = and i64 %42, 32768
  %44 = icmp ne i64 %43, 0
  br i1 %44, label %45, label %52

45:                                               ; preds = %39, %33
  %46 = load ptr, ptr %15, align 8
  %47 = getelementptr inbounds %struct.TT_FaceRec_, ptr %46, i32 0, i32 52
  %48 = load i32, ptr %47, align 8
  %49 = and i32 %48, 16
  %50 = icmp ne i32 %49, 0
  br i1 %50, label %52, label %51

51:                                               ; preds = %45
  store i32 7, ptr %6, align 4
  br label %185

52:                                               ; preds = %45, %39
  %53 = load ptr, ptr %15, align 8
  %54 = getelementptr inbounds %struct.TT_FaceRec_, ptr %53, i32 0, i32 8
  %55 = load i8, ptr %54, align 8
  %56 = icmp ne i8 %55, 0
  br i1 %56, label %58, label %57

57:                                               ; preds = %52
  br label %141

58:                                               ; preds = %52
  store i32 0, ptr %12, align 4
  br label %59

59:                                               ; preds = %81, %58
  %60 = load i32, ptr %12, align 4
  %61 = load i32, ptr %9, align 4
  %62 = icmp ult i32 %60, %61
  br i1 %62, label %63, label %84

63:                                               ; preds = %59
  %64 = load ptr, ptr %15, align 8
  %65 = getelementptr inbounds %struct.TT_FaceRec_, ptr %64, i32 0, i32 22
  %66 = load ptr, ptr %65, align 8
  %67 = getelementptr inbounds %struct.SFNT_Interface_, ptr %66, i32 0, i32 42
  %68 = load ptr, ptr %67, align 8
  %69 = load ptr, ptr %15, align 8
  %70 = load i32, ptr %8, align 4
  %71 = load i32, ptr %12, align 4
  %72 = add i32 %70, %71
  call void %68(ptr noundef %69, i8 noundef zeroext 1, i32 noundef %72, ptr noundef %16, ptr noundef %17)
  br label %73

73:                                               ; preds = %63
  br label %74

74:                                               ; preds = %73
  %75 = load i16, ptr %17, align 2
  %76 = zext i16 %75 to i64
  %77 = load ptr, ptr %11, align 8
  %78 = load i32, ptr %12, align 4
  %79 = zext i32 %78 to i64
  %80 = getelementptr inbounds i64, ptr %77, i64 %79
  store i64 %76, ptr %80, align 8
  br label %81

81:                                               ; preds = %74
  %82 = load i32, ptr %12, align 4
  %83 = add i32 %82, 1
  store i32 %83, ptr %12, align 4
  br label %59, !llvm.loop !12

84:                                               ; preds = %59
  br label %138

85:                                               ; preds = %27
  %86 = load ptr, ptr %7, align 8
  %87 = getelementptr inbounds %struct.FT_FaceRec_, ptr %86, i32 0, i32 1
  %88 = load i64, ptr %87, align 8
  %89 = and i64 %88, 2147418112
  %90 = icmp ne i64 %89, 0
  br i1 %90, label %97, label %91

91:                                               ; preds = %85
  %92 = load ptr, ptr %7, align 8
  %93 = getelementptr inbounds %struct.FT_FaceRec_, ptr %92, i32 0, i32 2
  %94 = load i64, ptr %93, align 8
  %95 = and i64 %94, 32768
  %96 = icmp ne i64 %95, 0
  br i1 %96, label %97, label %104

97:                                               ; preds = %91, %85
  %98 = load ptr, ptr %15, align 8
  %99 = getelementptr inbounds %struct.TT_FaceRec_, ptr %98, i32 0, i32 52
  %100 = load i32, ptr %99, align 8
  %101 = and i32 %100, 2
  %102 = icmp ne i32 %101, 0
  br i1 %102, label %104, label %103

103:                                              ; preds = %97
  store i32 7, ptr %6, align 4
  br label %185

104:                                              ; preds = %97, %91
  %105 = load ptr, ptr %15, align 8
  %106 = getelementptr inbounds %struct.TT_FaceRec_, ptr %105, i32 0, i32 6
  %107 = getelementptr inbounds %struct.TT_HoriHeader_, ptr %106, i32 0, i32 13
  %108 = load i16, ptr %107, align 2
  %109 = icmp ne i16 %108, 0
  br i1 %109, label %111, label %110

110:                                              ; preds = %104
  br label %141

111:                                              ; preds = %104
  store i32 0, ptr %12, align 4
  br label %112

112:                                              ; preds = %134, %111
  %113 = load i32, ptr %12, align 4
  %114 = load i32, ptr %9, align 4
  %115 = icmp ult i32 %113, %114
  br i1 %115, label %116, label %137

116:                                              ; preds = %112
  %117 = load ptr, ptr %15, align 8
  %118 = getelementptr inbounds %struct.TT_FaceRec_, ptr %117, i32 0, i32 22
  %119 = load ptr, ptr %118, align 8
  %120 = getelementptr inbounds %struct.SFNT_Interface_, ptr %119, i32 0, i32 42
  %121 = load ptr, ptr %120, align 8
  %122 = load ptr, ptr %15, align 8
  %123 = load i32, ptr %8, align 4
  %124 = load i32, ptr %12, align 4
  %125 = add i32 %123, %124
  call void %121(ptr noundef %122, i8 noundef zeroext 0, i32 noundef %125, ptr noundef %16, ptr noundef %18)
  br label %126

126:                                              ; preds = %116
  br label %127

127:                                              ; preds = %126
  %128 = load i16, ptr %18, align 2
  %129 = zext i16 %128 to i64
  %130 = load ptr, ptr %11, align 8
  %131 = load i32, ptr %12, align 4
  %132 = zext i32 %131 to i64
  %133 = getelementptr inbounds i64, ptr %130, i64 %132
  store i64 %129, ptr %133, align 8
  br label %134

134:                                              ; preds = %127
  %135 = load i32, ptr %12, align 4
  %136 = add i32 %135, 1
  store i32 %136, ptr %12, align 4
  br label %112, !llvm.loop !13

137:                                              ; preds = %112
  br label %138

138:                                              ; preds = %137, %84
  %139 = load i32, ptr %13, align 4
  store i32 %139, ptr %6, align 4
  br label %185

140:                                              ; preds = %5
  br label %141

141:                                              ; preds = %140, %110, %57
  %142 = load i32, ptr %10, align 4
  %143 = or i32 %142, 256
  store i32 %143, ptr %10, align 4
  store i32 0, ptr %12, align 4
  br label %144

144:                                              ; preds = %180, %141
  %145 = load i32, ptr %12, align 4
  %146 = load i32, ptr %9, align 4
  %147 = icmp ult i32 %145, %146
  br i1 %147, label %148, label %183

148:                                              ; preds = %144
  %149 = load ptr, ptr %14, align 8
  %150 = load ptr, ptr %7, align 8
  %151 = getelementptr inbounds %struct.FT_FaceRec_, ptr %150, i32 0, i32 22
  %152 = load ptr, ptr %151, align 8
  %153 = load i32, ptr %8, align 4
  %154 = load i32, ptr %12, align 4
  %155 = add i32 %153, %154
  %156 = load i32, ptr %10, align 4
  %157 = call i32 @cff_glyph_load(ptr noundef %149, ptr noundef %152, i32 noundef %155, i32 noundef %156)
  store i32 %157, ptr %13, align 4
  %158 = load i32, ptr %13, align 4
  %159 = icmp ne i32 %158, 0
  br i1 %159, label %160, label %161

160:                                              ; preds = %148
  br label %183

161:                                              ; preds = %148
  %162 = load i32, ptr %10, align 4
  %163 = sext i32 %162 to i64
  %164 = and i64 %163, 16
  %165 = icmp ne i64 %164, 0
  br i1 %165, label %166, label %170

166:                                              ; preds = %161
  %167 = load ptr, ptr %14, align 8
  %168 = getelementptr inbounds %struct.FT_GlyphSlotRec_, ptr %167, i32 0, i32 7
  %169 = load i64, ptr %168, align 8
  br label %174

170:                                              ; preds = %161
  %171 = load ptr, ptr %14, align 8
  %172 = getelementptr inbounds %struct.FT_GlyphSlotRec_, ptr %171, i32 0, i32 6
  %173 = load i64, ptr %172, align 8
  br label %174

174:                                              ; preds = %170, %166
  %175 = phi i64 [ %169, %166 ], [ %173, %170 ]
  %176 = load ptr, ptr %11, align 8
  %177 = load i32, ptr %12, align 4
  %178 = zext i32 %177 to i64
  %179 = getelementptr inbounds i64, ptr %176, i64 %178
  store i64 %175, ptr %179, align 8
  br label %180

180:                                              ; preds = %174
  %181 = load i32, ptr %12, align 4
  %182 = add i32 %181, 1
  store i32 %182, ptr %12, align 4
  br label %144, !llvm.loop !14

183:                                              ; preds = %160, %144
  %184 = load i32, ptr %13, align 4
  store i32 %184, ptr %6, align 4
  br label %185

185:                                              ; preds = %183, %138, %103, %51
  %186 = load i32, ptr %6, align 4
  ret i32 %186
}