; Function Attrs: nounwind uwtable
define internal i32 @cff_get_advances(ptr noundef %0, i32 noundef %1, i32 noundef %2, i32 noundef %3, ptr nocapture noundef writeonly %4) #4 {
  %6 = alloca i16, align 2
  %7 = alloca i16, align 2
  %8 = alloca i16, align 2
  %9 = getelementptr inbounds i8, ptr %0, i64 152
  %10 = load ptr, ptr %9, align 8
  %11 = getelementptr inbounds i8, ptr %0, i64 16
  %12 = load i64, ptr %11, align 8
  %13 = and i64 %12, 8
  %.not = icmp eq i64 %13, 0
  br i1 %.not, label %57, label %14

14:                                               ; preds = %5
  %15 = and i32 %3, 16
  %.not52 = icmp eq i32 %15, 0
  %16 = getelementptr inbounds i8, ptr %0, i64 8
  %17 = load i64, ptr %16, align 8
  %18 = and i64 %17, 2147418112
  %19 = and i64 %12, 32768
  %20 = or disjoint i64 %18, %19
  %or.cond63 = icmp eq i64 %20, 0
  br i1 %.not52, label %39, label %21

21:                                               ; preds = %14
  br i1 %or.cond63, label %26, label %22

22:                                               ; preds = %21
  %23 = getelementptr inbounds i8, ptr %0, i64 1224
  %24 = load i32, ptr %23, align 8
  %25 = and i32 %24, 16
  %.not59 = icmp eq i32 %25, 0
  br i1 %.not59, label %.loopexit, label %26

26:                                               ; preds = %21, %22
  %27 = getelementptr inbounds i8, ptr %0, i64 496
  %28 = load i8, ptr %27, align 8
  %.not60 = icmp eq i8 %28, 0
  br i1 %.not60, label %57, label %.preheader65

.preheader65:                                     ; preds = %26
  %.not74 = icmp eq i32 %2, 0
  br i1 %.not74, label %.loopexit, label %.lr.ph

.lr.ph:                                           ; preds = %.preheader65
  %29 = getelementptr inbounds i8, ptr %0, i64 880
  %wide.trip.count = zext i32 %2 to i64
  br label %30

30:                                               ; preds = %.lr.ph, %30
  %indvars.iv = phi i64 [ 0, %.lr.ph ], [ %indvars.iv.next, %30 ]
  %31 = load ptr, ptr %29, align 8
  %32 = getelementptr inbounds i8, ptr %31, i64 336
  %33 = load ptr, ptr %32, align 8
  %34 = trunc nuw i64 %indvars.iv to i32
  %35 = add i32 %34, %1
  call void %33(ptr noundef nonnull %0, i8 noundef zeroext 1, i32 noundef %35, ptr noundef nonnull %6, ptr noundef nonnull %7) #20
  %36 = load i16, ptr %7, align 2
  %37 = zext i16 %36 to i64
  %38 = getelementptr inbounds i64, ptr %4, i64 %indvars.iv
  store i64 %37, ptr %38, align 8
  %indvars.iv.next = add nuw nsw i64 %indvars.iv, 1
  %exitcond.not = icmp eq i64 %indvars.iv.next, %wide.trip.count
  br i1 %exitcond.not, label %.loopexit, label %30, !llvm.loop !15

39:                                               ; preds = %14
  br i1 %or.cond63, label %44, label %40

40:                                               ; preds = %39
  %41 = getelementptr inbounds i8, ptr %0, i64 1224
  %42 = load i32, ptr %41, align 8
  %43 = and i32 %42, 2
  %.not55 = icmp eq i32 %43, 0
  br i1 %.not55, label %.loopexit, label %44

44:                                               ; preds = %39, %40
  %45 = getelementptr inbounds i8, ptr %0, i64 438
  %46 = load i16, ptr %45, align 2
  %.not56 = icmp eq i16 %46, 0
  br i1 %.not56, label %57, label %.preheader

.preheader:                                       ; preds = %44
  %.not75 = icmp eq i32 %2, 0
  br i1 %.not75, label %.loopexit, label %.lr.ph69

.lr.ph69:                                         ; preds = %.preheader
  %47 = getelementptr inbounds i8, ptr %0, i64 880
  %wide.trip.count83 = zext i32 %2 to i64
  br label %48

48:                                               ; preds = %.lr.ph69, %48
  %indvars.iv80 = phi i64 [ 0, %.lr.ph69 ], [ %indvars.iv.next81, %48 ]
  %49 = load ptr, ptr %47, align 8
  %50 = getelementptr inbounds i8, ptr %49, i64 336
  %51 = load ptr, ptr %50, align 8
  %52 = trunc nuw i64 %indvars.iv80 to i32
  %53 = add i32 %52, %1
  call void %51(ptr noundef nonnull %0, i8 noundef zeroext 0, i32 noundef %53, ptr noundef nonnull %6, ptr noundef nonnull %8) #20
  %54 = load i16, ptr %8, align 2
  %55 = zext i16 %54 to i64
  %56 = getelementptr inbounds i64, ptr %4, i64 %indvars.iv80
  store i64 %55, ptr %56, align 8
  %indvars.iv.next81 = add nuw nsw i64 %indvars.iv80, 1
  %exitcond84.not = icmp eq i64 %indvars.iv.next81, %wide.trip.count83
  br i1 %exitcond84.not, label %.loopexit, label %48, !llvm.loop !16

57:                                               ; preds = %5, %44, %26
  %58 = or i32 %3, 256
  %59 = getelementptr inbounds i8, ptr %0, i64 160
  %.not76 = icmp eq i32 %2, 0
  br i1 %.not76, label %.loopexit, label %.lr.ph71

.lr.ph71:                                         ; preds = %57
  %60 = and i32 %3, 16
  %.not62 = icmp eq i32 %60, 0
  %.in.v = select i1 %.not62, i64 112, i64 120
  %.in = getelementptr inbounds i8, ptr %10, i64 %.in.v
  %wide.trip.count88 = zext i32 %2 to i64
  br label %61

61:                                               ; preds = %.lr.ph71, %66
  %indvars.iv85 = phi i64 [ 0, %.lr.ph71 ], [ %indvars.iv.next86, %66 ]
  %62 = load ptr, ptr %59, align 8
  %63 = trunc nuw i64 %indvars.iv85 to i32
  %64 = add i32 %63, %1
  %65 = tail call i32 @cff_glyph_load(ptr noundef %10, ptr noundef %62, i32 noundef %64, i32 noundef %58)
  %.not61 = icmp eq i32 %65, 0
  br i1 %.not61, label %66, label %.loopexit

66:                                               ; preds = %61
  %67 = load i64, ptr %.in, align 8
  %68 = getelementptr inbounds i64, ptr %4, i64 %indvars.iv85
  store i64 %67, ptr %68, align 8
  %indvars.iv.next86 = add nuw nsw i64 %indvars.iv85, 1
  %exitcond89.not = icmp eq i64 %indvars.iv.next86, %wide.trip.count88
  br i1 %exitcond89.not, label %.loopexit, label %61, !llvm.loop !17

.loopexit:                                        ; preds = %30, %48, %61, %66, %.preheader65, %.preheader, %57, %40, %22
  %.0 = phi i32 [ 7, %22 ], [ 7, %40 ], [ 0, %57 ], [ 0, %.preheader ], [ 0, %.preheader65 ], [ %65, %61 ], [ 0, %66 ], [ 0, %48 ], [ 0, %30 ]
  ret i32 %.0
}